target datalayout = "e-m:e-p270:32:32-p271:32:32-p272:64:64-i64:64-i128:128-f80:128-n8:16:32:64-S128"
target triple = "x86_64-unknown-linux-gnu"

; Function Attrs: mustprogress nounwind uwtable
define internal noundef signext i8 @_ZL9U_FAILURE10UErrorCode(i32 noundef %code) #3 {
entry:
  %code.addr = alloca i32, align 4
  store i32 %code, ptr %code.addr, align 4
  %0 = load i32, ptr %code.addr, align 4
  %cmp = icmp sgt i32 %0, 0
  %conv = zext i1 %cmp to i8
  ret i8 %conv
}

; Function Attrs: mustprogress uwtable
define noundef i32 @_ZN6icu_7516CollationBuilder25findOrInsertNodeForRootCEEliR10UErrorCode(ptr noundef nonnull align 8 dereferenceable(616) %this, i64 noundef %ce, i32 noundef %strength, ptr noundef nonnull align 4 dereferenceable(4) %errorCode) #0 align 2 {
entry:
  %retval = alloca i32, align 4
  %this.addr = alloca ptr, align 8
  %ce.addr = alloca i64, align 8
  %strength.addr = alloca i32, align 4
  %errorCode.addr = alloca ptr, align 8
  %index = alloca i32, align 4
  %lower32 = alloca i32, align 4
  store ptr %this, ptr %this.addr, align 8
  store i64 %ce, ptr %ce.addr, align 8
  store i32 %strength, ptr %strength.addr, align 4
  store ptr %errorCode, ptr %errorCode.addr, align 8
  %this1 = load ptr, ptr %this.addr, align 8
  %0 = load ptr, ptr %errorCode.addr, align 8
  %1 = load i32, ptr %0, align 4
  %call = call noundef signext i8 @_ZL9U_FAILURE10UErrorCode(i32 noundef %1)
  %tobool = icmp ne i8 %call, 0
  br i1 %tobool, label %if.then, label %if.end

if.then:                                          ; preds = %entry
  store i32 0, ptr %retval, align 4
  br label %return

if.end:                                           ; preds = %entry
  %2 = load i64, ptr %ce.addr, align 8
  %shr = ashr i64 %2, 32
  %conv = trunc i64 %shr to i32
  %3 = load ptr, ptr %errorCode.addr, align 8
  %call2 = call noundef i32 @_ZN6icu_7516CollationBuilder26findOrInsertNodeForPrimaryEjR10UErrorCode(ptr noundef nonnull align 8 dereferenceable(616) %this1, i32 noundef %conv, ptr noundef nonnull align 4 dereferenceable(4) %3)
  store i32 %call2, ptr %index, align 4
  %4 = load i32, ptr %strength.addr, align 4
  %cmp = icmp sge i32 %4, 1
  br i1 %cmp, label %if.then3, label %if.end11

if.then3:                                         ; preds = %if.end
  %5 = load i64, ptr %ce.addr, align 8
  %conv4 = trunc i64 %5 to i32
  store i32 %conv4, ptr %lower32, align 4
  %6 = load i32, ptr %index, align 4
  %7 = load i32, ptr %lower32, align 4
  %shr5 = lshr i32 %7, 16
  %8 = load ptr, ptr %errorCode.addr, align 8
  %call6 = call noundef i32 @_ZN6icu_7516CollationBuilder20findOrInsertWeakNodeEijiR10UErrorCode(ptr noundef nonnull align 8 dereferenceable(616) %this1, i32 noundef %6, i32 noundef %shr5, i32 noundef 1, ptr noundef nonnull align 4 dereferenceable(4) %8)
  store i32 %call6, ptr %index, align 4
  %9 = load i32, ptr %strength.addr, align 4
  %cmp7 = icmp sge i32 %9, 2
  br i1 %cmp7, label %if.then8, label %if.end10

if.then8:                                         ; preds = %if.then3
  %10 = load i32, ptr %index, align 4
  %11 = load i32, ptr %lower32, align 4
  %and = and i32 %11, 16191
  %12 = load ptr, ptr %errorCode.addr, align 8
  %call9 = call noundef i32 @_ZN6icu_7516CollationBuilder20findOrInsertWeakNodeEijiR10UErrorCode(ptr noundef nonnull align 8 dereferenceable(616) %this1, i32 noundef %10, i32 noundef %and, i32 noundef 2, ptr noundef nonnull align 4 dereferenceable(4) %12)
  store i32 %call9, ptr %index, align 4
  br label %if.end10

if.end10:                                         ; preds = %if.then8, %if.then3
  br label %if.end11

if.end11:                                         ; preds = %if.end10, %if.end
  %13 = load i32, ptr %index, align 4
  store i32 %13, ptr %retval, align 4
  br label %return

return:                                           ; preds = %if.end11, %if.then
  %14 = load i32, ptr %retval, align 4
  ret i32 %14
}