; Function Attrs: mustprogress uwtable
define noundef i32 @_ZN6icu_7516CollationBuilder25findOrInsertNodeForRootCEEliR10UErrorCode(ptr noundef nonnull align 8 dereferenceable(616) %this, i64 noundef %ce, i32 noundef %strength, ptr noundef nonnull align 4 dereferenceable(4) %errorCode) local_unnamed_addr #0 align 2 {
entry:
  %0 = load i32, ptr %errorCode, align 4
  %cmp.i = icmp slt i32 %0, 1
  br i1 %cmp.i, label %if.end, label %return

if.end:                                           ; preds = %entry
  %shr = lshr i64 %ce, 32
  %conv = trunc i64 %shr to i32
  %call2 = tail call noundef i32 @_ZN6icu_7516CollationBuilder26findOrInsertNodeForPrimaryEjR10UErrorCode(ptr noundef nonnull align 8 dereferenceable(616) %this, i32 noundef %conv, ptr noundef nonnull align 4 dereferenceable(4) %errorCode)
  %cmp = icmp sgt i32 %strength, 0
  br i1 %cmp, label %if.then3, label %return

if.then3:                                         ; preds = %if.end
  %conv4 = trunc i64 %ce to i32
  %shr5 = lshr i32 %conv4, 16
  %call6 = tail call noundef i32 @_ZN6icu_7516CollationBuilder20findOrInsertWeakNodeEijiR10UErrorCode(ptr noundef nonnull align 8 dereferenceable(616) %this, i32 noundef %call2, i32 noundef %shr5, i32 noundef 1, ptr noundef nonnull align 4 dereferenceable(4) %errorCode)
  %cmp7.not = icmp eq i32 %strength, 1
  br i1 %cmp7.not, label %return, label %if.then8

if.then8:                                         ; preds = %if.then3
  %and = and i32 %conv4, 16191
  %call9 = tail call noundef i32 @_ZN6icu_7516CollationBuilder20findOrInsertWeakNodeEijiR10UErrorCode(ptr noundef nonnull align 8 dereferenceable(616) %this, i32 noundef %call6, i32 noundef %and, i32 noundef 2, ptr noundef nonnull align 4 dereferenceable(4) %errorCode)
  br label %return

return:                                           ; preds = %if.end, %if.then8, %if.then3, %entry
  %retval.0 = phi i32 [ 0, %entry ], [ %call9, %if.then8 ], [ %call6, %if.then3 ], [ %call2, %if.end ]
  ret i32 %retval.0
}